; ModuleID = '44/469.c'
source_filename = "44/469.c"
target datalayout = "e-m:e-p270:32:32-p271:32:32-p272:64:64-i64:64-f80:128-n8:16:32:64-S128"
target triple = "x86_64-pc-linux-gnu"

@.str = private unnamed_addr constant [3 x i8] c"%d\00", align 1
@.str.1 = private unnamed_addr constant [2 x i8] c"0\00", align 1
@.str.2 = private unnamed_addr constant [4 x i8] c"%d\0A\00", align 1
@.str.3 = private unnamed_addr constant [2 x i8] c"-\00", align 1

; Function Attrs: noinline nounwind uwtable
define dso_local i32 @main() #0 {
  %1 = alloca i32, align 4
  %2 = alloca i32, align 4
  %3 = alloca i32, align 4
  store i32 0, i32* %1, align 4
  store i32 0, i32* %3, align 4
  br label %4

4:                                                ; preds = %11, %0
  %5 = load i32, i32* %3, align 4
  %6 = icmp slt i32 %5, 6
  br i1 %6, label %7, label %14

7:                                                ; preds = %4
  %8 = call i32 (i8*, ...) @__isoc99_scanf(i8* getelementptr inbounds ([3 x i8], [3 x i8]* @.str, i64 0, i64 0), i32* %2)
  %9 = load i32, i32* %2, align 4
  %10 = call i32 @RevNum(i32 %9)
  br label %11

11:                                               ; preds = %7
  %12 = load i32, i32* %3, align 4
  %13 = add nsw i32 %12, 1
  store i32 %13, i32* %3, align 4
  br label %4

14:                                               ; preds = %4
  ret i32 0
}

declare dso_local i32 @__isoc99_scanf(i8*, ...) #1

; Function Attrs: noinline nounwind uwtable
define dso_local i32 @RevNum(i32 %0) #0 {
  %2 = alloca i32, align 4
  %3 = alloca i32, align 4
  %4 = alloca i32, align 4
  store i32 %0, i32* %2, align 4
  store i32 0, i32* %3, align 4
  store i32 0, i32* %4, align 4
  %5 = load i32, i32* %2, align 4
  %6 = icmp eq i32 %5, 0
  br i1 %6, label %7, label %9

7:                                                ; preds = %1
  %8 = call i32 (i8*, ...) @printf(i8* getelementptr inbounds ([2 x i8], [2 x i8]* @.str.1, i64 0, i64 0))
  br label %79

9:                                                ; preds = %1
  %10 = load i32, i32* %2, align 4
  %11 = icmp sgt i32 %10, 0
  br i1 %11, label %12, label %35

12:                                               ; preds = %9
  br label %13

13:                                               ; preds = %17, %12
  %14 = load i32, i32* %2, align 4
  %15 = srem i32 %14, 10
  %16 = icmp eq i32 %15, 0
  br i1 %16, label %17, label %20

17:                                               ; preds = %13
  %18 = load i32, i32* %2, align 4
  %19 = sdiv i32 %18, 10
  store i32 %19, i32* %2, align 4
  br label %13

20:                                               ; preds = %13
  br label %21

21:                                               ; preds = %25, %20
  %22 = load i32, i32* %2, align 4
  %23 = sdiv i32 %22, 10
  %24 = icmp ne i32 %23, 0
  br i1 %24, label %25, label %32

25:                                               ; preds = %21
  %26 = load i32, i32* %2, align 4
  %27 = srem i32 %26, 10
  store i32 %27, i32* %3, align 4
  %28 = load i32, i32* %2, align 4
  %29 = sdiv i32 %28, 10
  store i32 %29, i32* %2, align 4
  %30 = load i32, i32* %3, align 4
  %31 = call i32 (i8*, ...) @printf(i8* getelementptr inbounds ([3 x i8], [3 x i8]* @.str, i64 0, i64 0), i32 %30)
  br label %21

32:                                               ; preds = %21
  %33 = load i32, i32* %2, align 4
  %34 = call i32 (i8*, ...) @printf(i8* getelementptr inbounds ([4 x i8], [4 x i8]* @.str.2, i64 0, i64 0), i32 %33)
  br label %35

35:                                               ; preds = %32, %9
  %36 = load i32, i32* %2, align 4
  %37 = icmp slt i32 %36, 0
  br i1 %37, label %38, label %78

38:                                               ; preds = %35
  %39 = load i32, i32* %2, align 4
  %40 = sub nsw i32 0, %39
  store i32 %40, i32* %2, align 4
  br label %41

41:                                               ; preds = %55, %38
  %42 = load i32, i32* %2, align 4
  %43 = srem i32 %42, 10
  %44 = icmp eq i32 %43, 0
  br i1 %44, label %45, label %56

45:                                               ; preds = %41
  %46 = load i32, i32* %2, align 4
  %47 = sdiv i32 %46, 10
  store i32 %47, i32* %2, align 4
  %48 = load i32, i32* %2, align 4
  %49 = icmp slt i32 0, %48
  %50 = zext i1 %49 to i32
  %51 = icmp slt i32 %50, 10
  br i1 %51, label %52, label %55

52:                                               ; preds = %45
  %53 = load i32, i32* %2, align 4
  %54 = sub nsw i32 0, %53
  store i32 %54, i32* %2, align 4
  br label %55

55:                                               ; preds = %52, %45
  br label %41

56:                                               ; preds = %41
  br label %57

57:                                               ; preds = %70, %56
  %58 = load i32, i32* %2, align 4
  %59 = sdiv i32 %58, 10
  %60 = icmp ne i32 %59, 0
  br i1 %60, label %61, label %75

61:                                               ; preds = %57
  %62 = load i32, i32* %2, align 4
  %63 = srem i32 %62, 10
  store i32 %63, i32* %3, align 4
  %64 = load i32, i32* %2, align 4
  %65 = sdiv i32 %64, 10
  store i32 %65, i32* %2, align 4
  %66 = load i32, i32* %4, align 4
  %67 = icmp eq i32 %66, 0
  br i1 %67, label %68, label %70

68:                                               ; preds = %61
  %69 = call i32 (i8*, ...) @printf(i8* getelementptr inbounds ([2 x i8], [2 x i8]* @.str.3, i64 0, i64 0))
  br label %70

70:                                               ; preds = %68, %61
  %71 = load i32, i32* %3, align 4
  %72 = call i32 (i8*, ...) @printf(i8* getelementptr inbounds ([3 x i8], [3 x i8]* @.str, i64 0, i64 0), i32 %71)
  %73 = load i32, i32* %4, align 4
  %74 = add nsw i32 %73, 1
  store i32 %74, i32* %4, align 4
  br label %57

75:                                               ; preds = %57
  %76 = load i32, i32* %2, align 4
  %77 = call i32 (i8*, ...) @printf(i8* getelementptr inbounds ([4 x i8], [4 x i8]* @.str.2, i64 0, i64 0), i32 %76)
  br label %78

78:                                               ; preds = %75, %35
  br label %79

79:                                               ; preds = %78, %7
  store i32 0, i32* %4, align 4
  ret i32 0
}

declare dso_local i32 @printf(i8*, ...) #1


!llvm.module.flags = !{!0}
!llvm.ident = !{!1}

!0 = !{i32 1, !"wchar_size", i32 4}
!1 = !{!"clang version 10.0.0-4ubuntu1 "}
