; ModuleID = 'source-C-CXX/43/469.c'
source_filename = "source-C-CXX/43/469.c"
target datalayout = "e-m:e-p270:32:32-p271:32:32-p272:64:64-i64:64-f80:128-n8:16:32:64-S128"
target triple = "x86_64-pc-linux-gnu"

@.str = private unnamed_addr constant [3 x i8] c"%d\00", align 1
@.str.2 = private unnamed_addr constant [4 x i8] c"%d\0A\00", align 1

; Function Attrs: nofree nounwind sspstrong uwtable
define dso_local i32 @main() local_unnamed_addr #0 {
  %1 = alloca i32, align 4
  %2 = bitcast i32* %1 to i8*
  call void @llvm.lifetime.start.p0i8(i64 4, i8* nonnull %2) #4
  %3 = call i32 (i8*, ...) @__isoc99_scanf(i8* getelementptr inbounds ([3 x i8], [3 x i8]* @.str, i64 0, i64 0), i32* nonnull %1)
  %4 = load i32, i32* %1, align 4, !tbaa !5
  %5 = call i32 @RevNum(i32 %4)
  %6 = call i32 (i8*, ...) @__isoc99_scanf(i8* getelementptr inbounds ([3 x i8], [3 x i8]* @.str, i64 0, i64 0), i32* nonnull %1)
  %7 = load i32, i32* %1, align 4, !tbaa !5
  %8 = call i32 @RevNum(i32 %7)
  %9 = call i32 (i8*, ...) @__isoc99_scanf(i8* getelementptr inbounds ([3 x i8], [3 x i8]* @.str, i64 0, i64 0), i32* nonnull %1)
  %10 = load i32, i32* %1, align 4, !tbaa !5
  %11 = call i32 @RevNum(i32 %10)
  %12 = call i32 (i8*, ...) @__isoc99_scanf(i8* getelementptr inbounds ([3 x i8], [3 x i8]* @.str, i64 0, i64 0), i32* nonnull %1)
  %13 = load i32, i32* %1, align 4, !tbaa !5
  %14 = call i32 @RevNum(i32 %13)
  %15 = call i32 (i8*, ...) @__isoc99_scanf(i8* getelementptr inbounds ([3 x i8], [3 x i8]* @.str, i64 0, i64 0), i32* nonnull %1)
  %16 = load i32, i32* %1, align 4, !tbaa !5
  %17 = call i32 @RevNum(i32 %16)
  %18 = call i32 (i8*, ...) @__isoc99_scanf(i8* getelementptr inbounds ([3 x i8], [3 x i8]* @.str, i64 0, i64 0), i32* nonnull %1)
  %19 = load i32, i32* %1, align 4, !tbaa !5
  %20 = call i32 @RevNum(i32 %19)
  call void @llvm.lifetime.end.p0i8(i64 4, i8* nonnull %2) #4
  ret i32 0
}

; Function Attrs: argmemonly mustprogress nofree nosync nounwind willreturn
declare void @llvm.lifetime.start.p0i8(i64 immarg, i8* nocapture) #1

; Function Attrs: nofree nounwind
declare noundef i32 @__isoc99_scanf(i8* nocapture noundef readonly, ...) local_unnamed_addr #2

; Function Attrs: nofree nounwind sspstrong uwtable
define dso_local i32 @RevNum(i32 %0) local_unnamed_addr #0 {
  %2 = icmp eq i32 %0, 0
  br i1 %2, label %3, label %5

3:                                                ; preds = %1
  %4 = tail call i32 @putchar(i32 48)
  br label %62

5:                                                ; preds = %1
  %6 = icmp sgt i32 %0, 0
  br i1 %6, label %7, label %30

7:                                                ; preds = %5
  %8 = urem i32 %0, 10
  %9 = icmp eq i32 %8, 0
  br i1 %9, label %14, label %10

10:                                               ; preds = %14, %7
  %11 = phi i32 [ %0, %7 ], [ %16, %14 ]
  %12 = add i32 %11, 9
  %13 = icmp ult i32 %12, 19
  br i1 %13, label %26, label %19

14:                                               ; preds = %7, %14
  %15 = phi i32 [ %16, %14 ], [ %0, %7 ]
  %16 = sdiv i32 %15, 10
  %17 = srem i32 %16, 10
  %18 = icmp eq i32 %17, 0
  br i1 %18, label %14, label %10, !llvm.loop !9

19:                                               ; preds = %10, %19
  %20 = phi i32 [ %21, %19 ], [ %11, %10 ]
  %21 = sdiv i32 %20, 10
  %22 = srem i32 %20, 10
  %23 = tail call i32 (i8*, ...) @printf(i8* nonnull dereferenceable(1) getelementptr inbounds ([3 x i8], [3 x i8]* @.str, i64 0, i64 0), i32 %22)
  %24 = add nsw i32 %21, 9
  %25 = icmp ult i32 %24, 19
  br i1 %25, label %26, label %19, !llvm.loop !11

26:                                               ; preds = %19, %10
  %27 = phi i32 [ %11, %10 ], [ %21, %19 ]
  %28 = tail call i32 (i8*, ...) @printf(i8* nonnull dereferenceable(1) getelementptr inbounds ([4 x i8], [4 x i8]* @.str.2, i64 0, i64 0), i32 %27)
  %29 = icmp slt i32 %27, 0
  br i1 %29, label %30, label %62

30:                                               ; preds = %5, %26
  %31 = phi i32 [ %27, %26 ], [ %0, %5 ]
  %32 = sub nsw i32 0, %31
  %33 = urem i32 %32, 10
  %34 = icmp eq i32 %33, 0
  br i1 %34, label %46, label %35

35:                                               ; preds = %46, %30
  %36 = phi i32 [ %32, %30 ], [ %49, %46 ]
  %37 = add i32 %36, 9
  %38 = icmp ult i32 %37, 19
  br i1 %38, label %59, label %39

39:                                               ; preds = %35
  %40 = sdiv i32 %36, 10
  %41 = srem i32 %36, 10
  %42 = tail call i32 @putchar(i32 45)
  %43 = tail call i32 (i8*, ...) @printf(i8* nonnull dereferenceable(1) getelementptr inbounds ([3 x i8], [3 x i8]* @.str, i64 0, i64 0), i32 %41)
  %44 = add nsw i32 %40, 9
  %45 = icmp ult i32 %44, 19
  br i1 %45, label %59, label %52

46:                                               ; preds = %30, %46
  %47 = phi i32 [ %48, %46 ], [ %31, %30 ]
  %48 = sdiv i32 %47, -10
  %49 = sub nsw i32 0, %48
  %50 = srem i32 %49, 10
  %51 = icmp eq i32 %50, 0
  br i1 %51, label %46, label %35, !llvm.loop !12

52:                                               ; preds = %39, %52
  %53 = phi i32 [ %54, %52 ], [ %40, %39 ]
  %54 = sdiv i32 %53, 10
  %55 = srem i32 %53, 10
  %56 = tail call i32 (i8*, ...) @printf(i8* nonnull dereferenceable(1) getelementptr inbounds ([3 x i8], [3 x i8]* @.str, i64 0, i64 0), i32 %55)
  %57 = add nsw i32 %54, 9
  %58 = icmp ult i32 %57, 19
  br i1 %58, label %59, label %52, !llvm.loop !13

59:                                               ; preds = %52, %39, %35
  %60 = phi i32 [ %36, %35 ], [ %40, %39 ], [ %54, %52 ]
  %61 = tail call i32 (i8*, ...) @printf(i8* nonnull dereferenceable(1) getelementptr inbounds ([4 x i8], [4 x i8]* @.str.2, i64 0, i64 0), i32 %60)
  br label %62

62:                                               ; preds = %26, %59, %3
  ret i32 0
}

; Function Attrs: argmemonly mustprogress nofree nosync nounwind willreturn
declare void @llvm.lifetime.end.p0i8(i64 immarg, i8* nocapture) #1

; Function Attrs: nofree nounwind
declare noundef i32 @printf(i8* nocapture noundef readonly, ...) local_unnamed_addr #2

; Function Attrs: nofree nounwind
declare noundef i32 @putchar(i32 noundef) local_unnamed_addr #3


!llvm.module.flags = !{!0, !1, !2, !3}
!llvm.ident = !{!4}

!0 = !{i32 1, !"wchar_size", i32 4}
!1 = !{i32 7, !"PIC Level", i32 2}
!2 = !{i32 7, !"PIE Level", i32 2}
!3 = !{i32 7, !"uwtable", i32 1}
!4 = !{!"clang version 13.0.0"}
!5 = !{!6, !6, i64 0}
!6 = !{!"int", !7, i64 0}
!7 = !{!"omnipotent char", !8, i64 0}
!8 = !{!"Simple C/C++ TBAA"}
!9 = distinct !{!9, !10}
!10 = !{!"llvm.loop.mustprogress"}
!11 = distinct !{!11, !10}
!12 = distinct !{!12, !10}
!13 = distinct !{!13, !10, !14}
!14 = !{!"llvm.loop.peeled.count", i32 1}
